(dp0
Vdomain
p1
V.x-mol.com
p2
sVname
p3
V__asc
p4
sVexpires
p5
V\u5468\u65e5, 12 \u4e8c\u6708 2017 14:22:16 GMT
p6
sVvalue
p7
Vcfb8ae1e15a329874696f8e3c82
p8
sVexpiry
p9
I1486909336
sVpath
p10
V/
p11
sVhttponly
p12
I00
sVsecure
p13
I00
s.