(dp0
Vdomain
p1
V.x-mol.com
p2
sVname
p3
V__auc
p4
sVexpires
p5
V\u5468\u4e8c, 13 \u4e8c\u6708 2018 13:52:16 GMT
p6
sVvalue
p7
Vcfb8ae1e15a329874696f8e3c82
p8
sVexpiry
p9
I1518529936
sVpath
p10
V/
p11
sVhttponly
p12
I00
sVsecure
p13
I00
s.