(dp0
Vdomain
p1
Vwww.x-mol.com
p2
sVname
p3
V_pk_ses.1.5860
p4
sVexpires
p5
V\u5468\u65e5, 12 \u4e8c\u6708 2017 14:22:15 GMT
p6
sVvalue
p7
V*
p8
sVexpiry
p9
I1486909335
sVpath
p10
V/
p11
sVhttponly
p12
I00
sVsecure
p13
I00
s.