(dp0
Vdomain
p1
Vwww.x-mol.com
p2
sVname
p3
V_pk_id.1.5860
p4
sVexpires
p5
V\u5468\u4e00, 12 \u4e09\u6708 2018 13:52:11 GMT
p6
sVvalue
p7
V24529525dc9076a3.1486907531.1.1486907535.1486907531.
p8
sVexpiry
p9
I1520862731
sVpath
p10
V/
p11
sVhttponly
p12
I00
sVsecure
p13
I00
s.