(dp0
Vdomain
p1
V.x-mol.com
p2
sVname
p3
VHm_lvt_543e8bb9e2ec1a0b9400d55857a600b0
p4
sVexpires
p5
V\u5468\u4e00, 12 \u4e8c\u6708 2018 13:52:15 GMT
p6
sVvalue
p7
V1486896855,1486897387,1486897464,1486907530
p8
sVexpiry
p9
I1518443535
sVpath
p10
V/
p11
sVhttponly
p12
I00
sVsecure
p13
I00
s.